(dp1
S'name_apply'
p2
I0
sS'name_need'
p3
I19
sS'addedservice_search'
p4
I2
sS'name_affects'
p5
I3
sS'noaccount'
p6
I4
sS'score_check'
p7
I5
sS'star_intro'
p8
I6
sS'traffic_package_scope'
p9
I7
sS'rechagre_method'
p10
I8
sS'score_empty_reason'
p11
I9
sS'password_search'
p12
I20
sS'traffic_stop'
p13
I11
sS'noaccount_weixin'
p14
I12
sS'addedservice_close'
p15
I14
sS'bill_search'
p16
I15
sS'bill_error'
p17
I16
sS'wlan_exceed'
p18
I17
sS'password_retrieve'
p19
I18
sS'traffic_error'
p20
I1
sS'traffic_intro'
p21
I22
sS'balance_search'
p22
I10
sS'traffic_use_orders'
p23
I21
sS'wlan_intro'
p24
I13
sS'password_intro'
p25
I23
sS'traffic_check'
p26
I24
sS'name_expired_time'
p27
I25
sS'password_reset'
p28
I26
sS'balance_nocorrect'
p29
I27
sS'noaccount_10086'
p30
I28
sS'traffic_package_changed'
p31
I29
sS'score_exchange'
p32
I30
sS'score_intro'
p33
I31
sS'wlan_apply'
p34
I32
sS'bill_incomplete'
p35
I33
s.